; ModuleID = '47/4370.c'
source_filename = "47/4370.c"
target datalayout = "e-m:e-p270:32:32-p271:32:32-p272:64:64-i64:64-f80:128-n8:16:32:64-S128"
target triple = "x86_64-pc-linux-gnu"

@.str = private unnamed_addr constant [3 x i8] c"%d\00", align 1
@.str.1 = private unnamed_addr constant [4 x i8] c"%d \00", align 1

; Function Attrs: noinline nounwind uwtable
define dso_local void @main() #0 {
  %1 = alloca [100 x i32], align 16
  %2 = alloca [100 x i32], align 16
  %3 = alloca i32, align 4
  %4 = alloca i32*, align 8
  %5 = alloca i32*, align 8
  %6 = call i32 (i8*, ...) @__isoc99_scanf(i8* getelementptr inbounds ([3 x i8], [3 x i8]* @.str, i64 0, i64 0), i32* %3)
  %7 = getelementptr inbounds [100 x i32], [100 x i32]* %1, i64 0, i64 0
  store i32* %7, i32** %4, align 8
  br label %8

8:                                                ; preds = %19, %0
  %9 = load i32*, i32** %4, align 8
  %10 = getelementptr inbounds [100 x i32], [100 x i32]* %1, i64 0, i64 0
  %11 = load i32, i32* %3, align 4
  %12 = sext i32 %11 to i64
  %13 = getelementptr inbounds i32, i32* %10, i64 %12
  %14 = getelementptr inbounds i32, i32* %13, i64 -1
  %15 = icmp ule i32* %9, %14
  br i1 %15, label %16, label %22

16:                                               ; preds = %8
  %17 = load i32*, i32** %4, align 8
  %18 = call i32 (i8*, ...) @__isoc99_scanf(i8* getelementptr inbounds ([3 x i8], [3 x i8]* @.str, i64 0, i64 0), i32* %17)
  br label %19

19:                                               ; preds = %16
  %20 = load i32*, i32** %4, align 8
  %21 = getelementptr inbounds i32, i32* %20, i32 1
  store i32* %21, i32** %4, align 8
  br label %8

22:                                               ; preds = %8
  %23 = getelementptr inbounds [100 x i32], [100 x i32]* %1, i64 0, i64 0
  store i32* %23, i32** %4, align 8
  %24 = getelementptr inbounds [100 x i32], [100 x i32]* %2, i64 0, i64 0
  %25 = load i32, i32* %3, align 4
  %26 = sext i32 %25 to i64
  %27 = getelementptr inbounds i32, i32* %24, i64 %26
  %28 = getelementptr inbounds i32, i32* %27, i64 -1
  store i32* %28, i32** %5, align 8
  br label %29

29:                                               ; preds = %41, %22
  %30 = load i32*, i32** %4, align 8
  %31 = getelementptr inbounds [100 x i32], [100 x i32]* %1, i64 0, i64 0
  %32 = load i32, i32* %3, align 4
  %33 = sext i32 %32 to i64
  %34 = getelementptr inbounds i32, i32* %31, i64 %33
  %35 = getelementptr inbounds i32, i32* %34, i64 -1
  %36 = icmp ule i32* %30, %35
  br i1 %36, label %37, label %46

37:                                               ; preds = %29
  %38 = load i32*, i32** %4, align 8
  %39 = load i32, i32* %38, align 4
  %40 = load i32*, i32** %5, align 8
  store i32 %39, i32* %40, align 4
  br label %41

41:                                               ; preds = %37
  %42 = load i32*, i32** %4, align 8
  %43 = getelementptr inbounds i32, i32* %42, i32 1
  store i32* %43, i32** %4, align 8
  %44 = load i32*, i32** %5, align 8
  %45 = getelementptr inbounds i32, i32* %44, i32 -1
  store i32* %45, i32** %5, align 8
  br label %29

46:                                               ; preds = %29
  %47 = getelementptr inbounds [100 x i32], [100 x i32]* %2, i64 0, i64 0
  store i32* %47, i32** %5, align 8
  br label %48

48:                                               ; preds = %60, %46
  %49 = load i32*, i32** %5, align 8
  %50 = getelementptr inbounds [100 x i32], [100 x i32]* %2, i64 0, i64 0
  %51 = load i32, i32* %3, align 4
  %52 = sext i32 %51 to i64
  %53 = getelementptr inbounds i32, i32* %50, i64 %52
  %54 = getelementptr inbounds i32, i32* %53, i64 -1
  %55 = icmp ult i32* %49, %54
  br i1 %55, label %56, label %63

56:                                               ; preds = %48
  %57 = load i32*, i32** %5, align 8
  %58 = load i32, i32* %57, align 4
  %59 = call i32 (i8*, ...) @printf(i8* getelementptr inbounds ([4 x i8], [4 x i8]* @.str.1, i64 0, i64 0), i32 %58)
  br label %60

60:                                               ; preds = %56
  %61 = load i32*, i32** %5, align 8
  %62 = getelementptr inbounds i32, i32* %61, i32 1
  store i32* %62, i32** %5, align 8
  br label %48

63:                                               ; preds = %48
  %64 = load i32*, i32** %5, align 8
  %65 = load i32, i32* %64, align 4
  %66 = call i32 (i8*, ...) @printf(i8* getelementptr inbounds ([3 x i8], [3 x i8]* @.str, i64 0, i64 0), i32 %65)
  ret void
}

declare dso_local i32 @__isoc99_scanf(i8*, ...) #1

declare dso_local i32 @printf(i8*, ...) #1


!llvm.module.flags = !{!0}
!llvm.ident = !{!1}

!0 = !{i32 1, !"wchar_size", i32 4}
!1 = !{!"clang version 10.0.0-4ubuntu1 "}
